; Function Attrs: mustprogress nounwind uwtable
define hidden void @_ZN7testing8internal27PrettyUnitTestResultPrinter11OnTestStartERKNS_8TestInfoE(ptr nonnull readnone align 8 captures(none) %0, ptr noundef nonnull readonly align 8 captures(none) dereferenceable(176) %1) unnamed_addr #5 align 2 {
  tail call void (i32, ptr, ...) @_ZN7testing8internal13ColoredPrintfENS0_10GTestColorEPKcz(i32 noundef 2, ptr noundef nonnull @.str.147)
  %3 = load ptr, ptr %1, align 8
  %4 = getelementptr inbounds nuw i8, ptr %1, i64 32
  %5 = load ptr, ptr %4, align 8
  %6 = tail call i32 (ptr, ...) @printf(ptr noundef nonnull dereferenceable(1) @.str.153, ptr noundef %3, ptr noundef %5)
  %putchar = tail call i32 @putchar(i32 10)
  %7 = load ptr, ptr @stdout, align 8
  %8 = tail call i32 @fflush(ptr noundef %7)
  ret void
}